; Function Attrs: mustprogress uwtable
define internal void @"_ZNSt17_Function_handlerIFNSt7__cxx1112basic_stringIcSt11char_traitsIcESaIcEEES5_EZN22cmGlobalNinjaGenerator15WriteDyndepFileERKS5_S9_S9_S9_S9_RKSt6vectorIS5_SaIS5_EES9_SE_SE_S9_S9_RK21cmCxxModuleExportInfoE3$_0E9_M_invokeERKSt9_Any_dataOS5_"(ptr dead_on_unwind noalias writable sret(%"class.std::__cxx11::basic_string") align 8 %0, ptr nocapture noundef nonnull readonly align 8 dereferenceable(16) %1, ptr noundef nonnull align 8 dereferenceable(32) %2) #3 align 2 personality ptr @__gxx_personality_v0 {
  %4 = alloca %"class.std::__cxx11::basic_string", align 8
  call void @llvm.lifetime.start.p0(i64 32, ptr nonnull %4), !noalias !1458
  call void @_ZNSt7__cxx1112basic_stringIcSt11char_traitsIcESaIcEEC1EOS4_(ptr noundef nonnull align 8 dereferenceable(32) %4, ptr noundef nonnull align 8 dereferenceable(32) %2) #23, !noalias !1461
  %.val.i.i = load ptr, ptr %1, align 8, !noalias !1461
  %5 = invoke noundef nonnull align 8 dereferenceable(32) ptr @_ZNK22cmGlobalNinjaGenerator18ConvertToNinjaPathERKNSt7__cxx1112basic_stringIcSt11char_traitsIcESaIcEEE(ptr noundef nonnull align 8 dereferenceable(2808) %.val.i.i, ptr noundef nonnull align 8 dereferenceable(32) %4)
          to label %.noexc.i.i unwind label %7, !noalias !1461

.noexc.i.i:                                       ; preds = %3
  %6 = invoke noundef nonnull align 8 dereferenceable(32) ptr @_ZNSt7__cxx1112basic_stringIcSt11char_traitsIcESaIcEEaSERKS4_(ptr noundef nonnull align 8 dereferenceable(32) %4, ptr noundef nonnull align 8 dereferenceable(32) %5)
          to label %"_ZSt10__invoke_rINSt7__cxx1112basic_stringIcSt11char_traitsIcESaIcEEERZN22cmGlobalNinjaGenerator15WriteDyndepFileERKS5_S8_S8_S8_S8_RKSt6vectorIS5_SaIS5_EES8_SD_SD_S8_S8_RK21cmCxxModuleExportInfoE3$_0JS5_EENSt9enable_ifIX16is_invocable_r_vIT_T0_DpT1_EESK_E4typeEOSL_DpOSM_.exit" unwind label %7, !noalias !1461

7:                                                ; preds = %.noexc.i.i, %3
  %8 = landingpad { ptr, i32 }
          cleanup
  call void @_ZNSt7__cxx1112basic_stringIcSt11char_traitsIcESaIcEED1Ev(ptr noundef nonnull align 8 dereferenceable(32) %4) #23, !noalias !1461
  resume { ptr, i32 } %8

"_ZSt10__invoke_rINSt7__cxx1112basic_stringIcSt11char_traitsIcESaIcEEERZN22cmGlobalNinjaGenerator15WriteDyndepFileERKS5_S8_S8_S8_S8_RKSt6vectorIS5_SaIS5_EES8_SD_SD_S8_S8_RK21cmCxxModuleExportInfoE3$_0JS5_EENSt9enable_ifIX16is_invocable_r_vIT_T0_DpT1_EESK_E4typeEOSL_DpOSM_.exit": ; preds = %.noexc.i.i
  call void @_ZNSt7__cxx1112basic_stringIcSt11char_traitsIcESaIcEEC1EOS4_(ptr noundef nonnull align 8 dereferenceable(32) %0, ptr noundef nonnull align 8 dereferenceable(32) %4) #23
  call void @_ZNSt7__cxx1112basic_stringIcSt11char_traitsIcESaIcEED1Ev(ptr noundef nonnull align 8 dereferenceable(32) %4) #23
  call void @llvm.lifetime.end.p0(i64 32, ptr nonnull %4), !noalias !1458
  ret void
}